target datalayout = "e-m:e-p270:32:32-p271:32:32-p272:64:64-i64:64-i128:128-f80:128-n8:16:32:64-S128"
target triple = "x86_64-pc-linux-gnu"

%struct.topoinfo_tree = type { i32, ptr }
%struct.topo_info = type { i16, i32, ptr, ptr, ptr }

; Function Attrs: nounwind uwtable
define dso_local i32 @topology_p_topology_free(ptr noundef %0) #0 {
  %2 = alloca ptr, align 8
  %3 = alloca i32, align 4
  %4 = alloca ptr, align 8
  store ptr %0, ptr %2, align 8
  call void @llvm.lifetime.start.p0(i64 4, ptr %3) #10
  store i32 0, ptr %3, align 4
  call void @llvm.lifetime.start.p0(i64 8, ptr %4) #10
  %5 = load ptr, ptr %2, align 8
  store ptr %5, ptr %4, align 8
  %6 = load ptr, ptr %4, align 8
  %7 = icmp ne ptr %6, null
  br i1 %7, label %8, label %49

8:                                                ; preds = %1
  %9 = load ptr, ptr %4, align 8
  %10 = getelementptr inbounds nuw %struct.topoinfo_tree, ptr %9, i32 0, i32 1
  %11 = load ptr, ptr %10, align 8
  %12 = icmp ne ptr %11, null
  br i1 %12, label %13, label %48

13:                                               ; preds = %8
  store i32 0, ptr %3, align 4
  br label %14

14:                                               ; preds = %42, %13
  %15 = load i32, ptr %3, align 4
  %16 = load ptr, ptr %4, align 8
  %17 = getelementptr inbounds nuw %struct.topoinfo_tree, ptr %16, i32 0, i32 0
  %18 = load i32, ptr %17, align 8
  %19 = icmp ult i32 %15, %18
  br i1 %19, label %20, label %45

20:                                               ; preds = %14
  %21 = load ptr, ptr %4, align 8
  %22 = getelementptr inbounds nuw %struct.topoinfo_tree, ptr %21, i32 0, i32 1
  %23 = load ptr, ptr %22, align 8
  %24 = load i32, ptr %3, align 4
  %25 = sext i32 %24 to i64
  %26 = getelementptr inbounds %struct.topo_info, ptr %23, i64 %25
  %27 = getelementptr inbounds nuw %struct.topo_info, ptr %26, i32 0, i32 2
  call void @slurm_xfree(ptr noundef %27)
  %28 = load ptr, ptr %4, align 8
  %29 = getelementptr inbounds nuw %struct.topoinfo_tree, ptr %28, i32 0, i32 1
  %30 = load ptr, ptr %29, align 8
  %31 = load i32, ptr %3, align 4
  %32 = sext i32 %31 to i64
  %33 = getelementptr inbounds %struct.topo_info, ptr %30, i64 %32
  %34 = getelementptr inbounds nuw %struct.topo_info, ptr %33, i32 0, i32 3
  call void @slurm_xfree(ptr noundef %34)
  %35 = load ptr, ptr %4, align 8
  %36 = getelementptr inbounds nuw %struct.topoinfo_tree, ptr %35, i32 0, i32 1
  %37 = load ptr, ptr %36, align 8
  %38 = load i32, ptr %3, align 4
  %39 = sext i32 %38 to i64
  %40 = getelementptr inbounds %struct.topo_info, ptr %37, i64 %39
  %41 = getelementptr inbounds nuw %struct.topo_info, ptr %40, i32 0, i32 4
  call void @slurm_xfree(ptr noundef %41)
  br label %42

42:                                               ; preds = %20
  %43 = load i32, ptr %3, align 4
  %44 = add nsw i32 %43, 1
  store i32 %44, ptr %3, align 4
  br label %14, !llvm.loop !24

45:                                               ; preds = %14
  %46 = load ptr, ptr %4, align 8
  %47 = getelementptr inbounds nuw %struct.topoinfo_tree, ptr %46, i32 0, i32 1
  call void @slurm_xfree(ptr noundef %47)
  br label %48

48:                                               ; preds = %45, %8
  call void @slurm_xfree(ptr noundef %4)
  br label %49

49:                                               ; preds = %48, %1
  call void @llvm.lifetime.end.p0(i64 8, ptr %4) #10
  call void @llvm.lifetime.end.p0(i64 4, ptr %3) #10
  ret i32 0
}